(dp0
S'me'
p1
S'root'
p2
sS'status'
p3
S'Off'
p4
sS'delayTime'
p5
I0
sS't'
p6
I59
sS'hwPumpVolume'
p7
F0.0
sS'watchdog'
p8
I1348957036
sS'hwtDone'
p9
I00
sS'hwPumpDone'
p10
I01
sS'delayTimeDone'
p11
I01
s.