(dp0
S'runStop'
p1
S'run'
p2
sS'hotWaterPump'
p3
(dp4
S'active'
p5
I01
sS'targetValue'
p6
S'1'
p7
ssS'waterCirculationPump'
p8
(dp9
g5
I00
sg6
S'0'
p10
ssS'mashCirculationPump'
p11
(dp12
g5
I00
sg6
g10
ssS'wortPump'
p13
(dp14
g5
I01
sg6
g7
ssS'delayTimer'
p15
(dp16
g5
I00
sg6
g10
ssS'waterHeater'
p17
(dp18
g5
I00
sg6
S'70.0'
p19
ss.