(dp0
S'controllers'
p1
(dp2
S'hwtsim'
p3
(dp4
S'actual'
p5
F-2.0
sS'target'
p6
F0.0
sS'targetMet'
p7
I00
sS'active'
p8
I00
sS'powerOn'
p9
I00
sS'unit'
p10
S'F'
p11
ssS'hwPump_sim'
p12
(dp13
g5
I0
sg6
I0
sg7
I01
sg8
I00
sg9
I00
sg10
S'Qt'
p14
ssS'hoptimer_sim'
p15
(dp16
g5
I5
sg6
I9
sg7
I00
sg8
I01
sg9
I00
sg10
S'sec'
p17
sssS'runStop'
p18
S'run'
p19
sS'stage'
p20
V3
p21
sS'watchDog'
p22
I1350367585
s.