(dp0
S'controllers'
p1
(dp2
S'hotWaterTun'
p3
(dp4
S'powerOn'
p5
I01
sS'actual'
p6
I540
sS'target'
p7
S'160'
p8
sS'unit'
p9
S'F'
p10
sS'targetMet'
p11
I00
ssS'delayTime'
p12
(dp13
g5
I00
sg6
I0
sg7
I0
sg9
S'sec'
p14
sg11
I01
ssS'hwPump'
p15
(dp16
g5
I01
sg6
F3.5958233170393052
sg7
S'4'
p17
sg9
S'Qt'
p18
sg11
I00
sssS'runStop'
p19
S'run'
p20
sS'watchDog'
p21
I1349568315
s.