(dp0
S'controllers'
p1
(dp2
S'hotWaterPump'
p3
(dp4
S'actual'
p5
I0
sS'target'
p6
I0
sS'targetMet'
p7
I01
sS'active'
p8
I00
sS'powerOn'
p9
I00
sS'unit'
p10
S'Qt'
p11
ssS'waterCirculationPump'
p12
(dp13
g5
I0
sg6
I0
sg7
I01
sg8
I00
sg9
I00
sg10
g11
ssS'mashCirculationPump'
p14
(dp15
g5
I0
sg6
I0
sg7
I01
sg8
I00
sg9
I00
sg10
g11
ssS'wortPump'
p16
(dp17
g5
F0.2572222306178166
sg6
F0.25
sg7
I01
sg8
I01
sg9
I00
sg10
g11
ssS'delayTimer'
p18
(dp19
g5
I0
sg6
I0
sg7
I01
sg8
I00
sg9
I00
sg10
S'sec'
p20
ssS'waterHeater'
p21
(dp22
g5
F-41.0
sg6
F0.0
sg7
I00
sg8
I00
sg9
I00
sg10
S'F'
p23
sssS'runStop'
p24
S'run'
p25
sS'stage'
p26
V4
p27
sS'watchDog'
p28
I1352173609
s.