(dp0
S'controllers'
p1
(dp2
S'hotWaterTun'
p3
(dp4
S'actual'
p5
I-341
sS'target'
p6
I70
sS'unit'
p7
S'F'
p8
sS'targetMet'
p9
I00
ssS'delayTime'
p10
(dp11
g5
I0
sg6
I0
sg7
S'sec'
p12
sg9
I01
ssS'hwPump'
p13
(dp14
g5
F0.0
sg6
I0
sg7
S'Qt'
p15
sg9
I01
sssS'runStop'
p16
S'stop'
p17
sS'watchDog'
p18
I1349330335
s.