(dp0
S'controllers'
p1
(dp2
S'hotWaterPump'
p3
(dp4
S'actual'
p5
F3.806215078402788
sS'target'
p6
F8.0125
sS'targetMet'
p7
I00
sS'active'
p8
I01
sS'powerOn'
p9
I01
sS'unit'
p10
S'Qt'
p11
ssS'waterCirculationPump'
p12
(dp13
g5
I0
sg6
I0
sg7
I01
sg8
I00
sg9
I00
sg10
NssS'mashCirculationPump'
p14
(dp15
g5
I0
sg6
I0
sg7
I01
sg8
I00
sg9
I00
sg10
NssS'wortPump'
p16
(dp17
g5
I0
sg6
I0
sg7
I01
sg8
I00
sg9
I00
sg10
g11
ssS'boiler'
p18
(dp19
g5
I1
sg6
I0
sg7
I01
sg8
I00
sg9
I00
sg10
NssS'delayTimer'
p20
(dp21
g5
I0
sg6
I0
sg7
I01
sg8
I00
sg9
I00
sg10
S'min'
p22
ssS'waterHeater'
p23
(dp24
g5
F117.69999999999884
sg6
F0.0
sg7
I01
sg8
I00
sg9
I00
sg10
S'F'
p25
sssS'runStop'
p26
S'run'
p27
sS'stage'
p28
S'03 StrikeWater'
p29
sS'name'
p30
VSilver Dollar Porter 2.5 gallons
p31
sS'watchDog'
p32
I1355721798
s.