(dp0
S'controllers'
p1
(dp2
S'hotWaterTun'
p3
(dp4
S'powerOn'
p5
I00
sS'actual'
p6
I-5
sS'target'
p7
I70
sS'unit'
p8
S'F'
p9
sS'targetMet'
p10
I00
ssS'delayTime'
p11
(dp12
g5
I00
sg6
I0
sg7
I0
sg8
S'sec'
p13
sg10
I01
ssS'hwPump'
p14
(dp15
g5
I00
sg6
I0
sg7
I0
sg8
S'Qt'
p16
sg10
I01
sssS'runStop'
p17
S'stop'
p18
sS'watchDog'
p19
I1349407146
s.